; Function Attrs: mustprogress uwtable
define void @_ZNK5boost15program_options6detail7cmdline11check_styleEi(ptr nocapture nonnull readnone align 8 %0, i32 noundef %1) local_unnamed_addr #3 align 2 personality ptr @__gxx_personality_v0 {
  %3 = alloca %"class.boost::program_options::invalid_command_line_style", align 8
  %4 = alloca %"class.std::__cxx11::basic_string", align 8
  %5 = alloca %"class.std::allocator", align 1
  %6 = and i32 %1, 4097
  %.not = icmp eq i32 %6, 0
  %7 = and i32 %1, 48
  %8 = icmp ne i32 %7, 0
  %or.cond33.not = or i1 %.not, %8
  br i1 %or.cond33.not, label %9, label %.thread43

9:                                                ; preds = %2
  %10 = and i32 %1, 194
  %or.cond35 = icmp eq i32 %10, 2
  br i1 %or.cond35, label %.thread43, label %.thread

.thread:                                          ; preds = %9
  %11 = and i32 %1, 14
  %or.cond37 = icmp eq i32 %11, 2
  br i1 %or.cond37, label %.thread43, label %27

.thread43:                                        ; preds = %2, %.thread, %9
  %.2.ph = phi ptr [ @.str.9, %9 ], [ @.str.10, %.thread ], [ @.str.8, %2 ]
  call void @llvm.lifetime.start.p0(i64 16, ptr nonnull %3) #28
  call void @llvm.lifetime.start.p0(i64 32, ptr nonnull %4) #28
  call void @llvm.lifetime.start.p0(i64 1, ptr nonnull %5) #28
  call void @_ZNSt7__cxx1112basic_stringIcSt11char_traitsIcESaIcEEC2IS3_EEPKcRKS3_(ptr noundef nonnull align 8 dereferenceable(32) %4, ptr noundef nonnull %.2.ph, ptr noundef nonnull align 1 dereferenceable(1) %5)
  invoke void @_ZNSt11logic_errorC2ERKNSt7__cxx1112basic_stringIcSt11char_traitsIcESaIcEEE(ptr noundef nonnull align 8 dereferenceable(16) %3, ptr noundef nonnull align 8 dereferenceable(32) %4)
          to label %12 unwind label %14

12:                                               ; preds = %.thread43
  store ptr getelementptr inbounds inrange(-16, 24) (i8, ptr @_ZTVN5boost15program_options26invalid_command_line_styleE, i64 16), ptr %3, align 8, !tbaa !41
  invoke void @_ZN5boost15throw_exceptionINS_15program_options26invalid_command_line_styleEEEvRKT_(ptr noundef nonnull align 8 dereferenceable(16) %3) #29
          to label %13 unwind label %16

13:                                               ; preds = %12
  unreachable

14:                                               ; preds = %.thread43
  %15 = landingpad { ptr, i32 }
          cleanup
  br label %18

16:                                               ; preds = %12
  %17 = landingpad { ptr, i32 }
          cleanup
  call void @_ZNSt11logic_errorD2Ev(ptr noundef nonnull align 8 dereferenceable(16) %3) #28
  br label %18

18:                                               ; preds = %16, %14
  %.pn = phi { ptr, i32 } [ %17, %16 ], [ %15, %14 ]
  %19 = load ptr, ptr %4, align 8, !tbaa !10
  %20 = getelementptr inbounds nuw i8, ptr %4, i64 16
  %21 = icmp eq ptr %19, %20
  br i1 %21, label %_ZNKSt7__cxx1112basic_stringIcSt11char_traitsIcESaIcEE11_M_is_localEv.exit.thread.i.i, label %_ZNKSt7__cxx1112basic_stringIcSt11char_traitsIcESaIcEE11_M_is_localEv.exit.i.i

_ZNKSt7__cxx1112basic_stringIcSt11char_traitsIcESaIcEE11_M_is_localEv.exit.thread.i.i: ; preds = %18
  %22 = getelementptr inbounds nuw i8, ptr %4, i64 8
  %23 = load i64, ptr %22, align 8, !tbaa !13
  %24 = icmp ult i64 %23, 16
  call void @llvm.assume(i1 %24)
  br label %_ZNSt7__cxx1112basic_stringIcSt11char_traitsIcESaIcEED2Ev.exit

_ZNKSt7__cxx1112basic_stringIcSt11char_traitsIcESaIcEE11_M_is_localEv.exit.i.i: ; preds = %18
  %25 = load i64, ptr %20, align 8, !tbaa !12
  %26 = add i64 %25, 1
  call void @_ZdlPvm(ptr noundef %19, i64 noundef %26) #31
  br label %_ZNSt7__cxx1112basic_stringIcSt11char_traitsIcESaIcEED2Ev.exit

_ZNSt7__cxx1112basic_stringIcSt11char_traitsIcESaIcEED2Ev.exit: ; preds = %_ZNKSt7__cxx1112basic_stringIcSt11char_traitsIcESaIcEE11_M_is_localEv.exit.i.i, %_ZNKSt7__cxx1112basic_stringIcSt11char_traitsIcESaIcEE11_M_is_localEv.exit.thread.i.i
  call void @llvm.lifetime.end.p0(i64 1, ptr nonnull %5) #28
  call void @llvm.lifetime.end.p0(i64 32, ptr nonnull %4) #28
  call void @llvm.lifetime.end.p0(i64 16, ptr nonnull %3) #28
  resume { ptr, i32 } %.pn

27:                                               ; preds = %.thread
  ret void
}